target datalayout = "e-m:e-p270:32:32-p271:32:32-p272:64:64-i64:64-i128:128-f80:128-n8:16:32:64-S128"
target triple = "x86_64-pc-linux-gnu"

%struct.rb_code_location_struct = type { %struct.rb_code_position_struct, %struct.rb_code_position_struct }
%struct.rb_code_position_struct = type { i32, i32 }
%struct.rb_data_type_struct = type { ptr, %struct.anon.36, ptr, ptr, i64 }
%struct.anon.36 = type { ptr, ptr, ptr, ptr, [1 x ptr] }
%struct.rb_iseq_struct = type { i64, i64, ptr, %union.anon.13 }
%union.anon.13 = type { %struct.anon.14 }
%struct.anon.14 = type { i64, i32 }
%struct.rb_iseq_constant_body = type { i32, i32, ptr, %struct.anon.16, %struct.rb_iseq_location_struct, %struct.iseq_insn_info, ptr, ptr, ptr, ptr, ptr, ptr, %struct.anon.17, i32, i32, i32, i32, i32, i32, i32, i32, i8, %union.anon.18, ptr, ptr, ptr, i64, ptr, i64, ptr, i64 }
%struct.anon.16 = type { %struct.anon, i32, i32, i32, i32, i32, i32, i32, ptr, ptr }
%struct.anon = type { i16, [2 x i8] }
%struct.rb_iseq_location_struct = type { i64, i64, i64, i32, i32, %struct.rb_code_location_struct }
%struct.iseq_insn_info = type { ptr, ptr, i32, ptr }
%struct.anon.17 = type { i64, i64, i64, i64, ptr }
%union.anon.18 = type { ptr }

@rb_eTypeError = external global i64, align 8
@iseqw_data_type = internal constant %struct.rb_data_type_struct { ptr @.str.157, %struct.anon.36 { ptr @iseqw_mark, ptr inttoptr (i64 -1 to ptr), ptr @iseqw_memsize, ptr @iseqw_ref_update, [1 x ptr] zeroinitializer }, ptr null, ptr null, i64 33 }, align 8
@.str.158 = private unnamed_addr constant [34 x i8] c"uninitialized InstructionSequence\00", align 1

; Function Attrs: nounwind sspstrong uwtable
define internal ptr @iseqw_check(i64 noundef %0) #0 {
  %2 = alloca i64, align 8
  %3 = alloca ptr, align 8
  %4 = alloca ptr, align 8
  store i64 %0, ptr %2, align 8, !tbaa !17
  call void @llvm.lifetime.start.p0(i64 8, ptr %3) #24
  %5 = load i64, ptr %2, align 8, !tbaa !17
  %6 = call ptr @rb_check_typeddata(i64 noundef %5, ptr noundef @iseqw_data_type)
  store ptr %6, ptr %3, align 8, !tbaa !258
  call void @llvm.lifetime.start.p0(i64 8, ptr %4) #24
  %7 = load ptr, ptr %3, align 8, !tbaa !258
  %8 = load ptr, ptr %7, align 8, !tbaa !7
  store ptr %8, ptr %4, align 8, !tbaa !7
  %9 = load ptr, ptr %4, align 8, !tbaa !7
  %10 = getelementptr inbounds nuw %struct.rb_iseq_struct, ptr %9, i32 0, i32 2
  %11 = load ptr, ptr %10, align 8, !tbaa !12
  %12 = icmp ne ptr %11, null
  br i1 %12, label %15, label %13

13:                                               ; preds = %1
  %14 = load ptr, ptr %4, align 8, !tbaa !7
  call void @rb_ibf_load_iseq_complete(ptr noundef %14)
  br label %15

15:                                               ; preds = %13, %1
  %16 = load ptr, ptr %4, align 8, !tbaa !7
  %17 = getelementptr inbounds nuw %struct.rb_iseq_struct, ptr %16, i32 0, i32 2
  %18 = load ptr, ptr %17, align 8, !tbaa !12
  %19 = getelementptr inbounds nuw %struct.rb_iseq_constant_body, ptr %18, i32 0, i32 4
  %20 = getelementptr inbounds nuw %struct.rb_iseq_location_struct, ptr %19, i32 0, i32 2
  %21 = load i64, ptr %20, align 8, !tbaa !223
  %22 = icmp ne i64 %21, 0
  br i1 %22, label %25, label %23

23:                                               ; preds = %15
  %24 = load i64, ptr @rb_eTypeError, align 8, !tbaa !17
  call void (i64, ptr, ...) @rb_raise(i64 noundef %24, ptr noundef @.str.158) #26
  unreachable

25:                                               ; preds = %15
  %26 = load ptr, ptr %4, align 8, !tbaa !7
  call void @llvm.lifetime.end.p0(i64 8, ptr %4) #24
  call void @llvm.lifetime.end.p0(i64 8, ptr %3) #24
  ret ptr %26
}

; Function Attrs: nounwind sspstrong uwtable
define internal i64 @iseqw_script_lines(i64 noundef %0) #0 {
  %2 = alloca i64, align 8
  %3 = alloca ptr, align 8
  store i64 %0, ptr %2, align 8, !tbaa !17
  call void @llvm.lifetime.start.p0(i64 8, ptr %3) #24
  %4 = load i64, ptr %2, align 8, !tbaa !17
  %5 = call ptr @iseqw_check(i64 noundef %4)
  store ptr %5, ptr %3, align 8, !tbaa !7
  %6 = load ptr, ptr %3, align 8, !tbaa !7
  %7 = getelementptr inbounds nuw %struct.rb_iseq_struct, ptr %6, i32 0, i32 2
  %8 = load ptr, ptr %7, align 8, !tbaa !12
  %9 = getelementptr inbounds nuw %struct.rb_iseq_constant_body, ptr %8, i32 0, i32 12
  %10 = getelementptr inbounds nuw %struct.anon.17, ptr %9, i32 0, i32 1
  %11 = load i64, ptr %10, align 8, !tbaa !171
  call void @llvm.lifetime.end.p0(i64 8, ptr %3) #24
  ret i64 %11
}